(dp1
S'sg_version_data'
p2
(dp3
S'code'
p4
S'v1.3.8'
p5
sS'description'
p6
S'Updates webserver backend.'
p7
sS'tags'
p8
(lp9
sS'sg_payload'
p10
(dp11
S'name'
p12
S'tk-framework-desktopserver_v1.3.8.zip'
p13
sS'url'
p14
S'https://tank.shotgunstudio.com/file_serve/attachment/21218'
p15
sS'content_type'
p16
S'application/zip'
p17
sS'type'
p18
S'Attachment'
p19
sS'id'
p20
I21218
sS'link_type'
p21
S'upload'
p22
ssS'sg_status_list'
p23
S'prod'
p24
sS'sg_detailed_release_notes'
p25
NsS'sg_documentation'
p26
NsS'type'
p27
S'CustomNonProjectEntity09'
p28
sS'id'
p29
I887
ssS'sg_bundle_data'
p30
(dp31
S'sg_status_list'
p32
S'depl'
p33
sS'type'
p34
S'CustomNonProjectEntity13'
p35
sS'id'
p36
I15
sS'sg_system_name'
p37
S'tk-framework-desktopserver'
p38
sS'sg_deprecation_message'
p39
Nss.