(dp1
S'sg_version_data'
p2
(dp3
S'code'
p4
S'v1.0.0'
p5
sS'description'
p6
S'Initial Release'
p7
sS'tags'
p8
(lp9
sS'sg_payload'
p10
(dp11
S'name'
p12
S'tk-multi-devutils_v1.0.0.zip'
p13
sS'url'
p14
S'https://tank.shotgunstudio.com/file_serve/attachment/20567'
p15
sS'content_type'
p16
S'application/zip'
p17
sS'type'
p18
S'Attachment'
p19
sS'id'
p20
I20567
sS'link_type'
p21
S'upload'
p22
ssS'sg_status_list'
p23
S'prod'
p24
sS'sg_detailed_release_notes'
p25
NsS'sg_documentation'
p26
NsS'type'
p27
S'CustomNonProjectEntity05'
p28
sS'id'
p29
I2862
ssS'sg_bundle_data'
p30
(dp31
S'sg_status_list'
p32
S'hidden'
p33
sS'type'
p34
S'CustomNonProjectEntity02'
p35
sS'id'
p36
I235
sS'sg_system_name'
p37
S'tk-multi-devutils'
p38
sS'sg_deprecation_message'
p39
Nss.